target datalayout = "e-m:e-p270:32:32-p271:32:32-p272:64:64-i64:64-i128:128-f80:128-n8:16:32:64-S128"
target triple = "x86_64-unknown-linux-gnu"

%struct.BlockCopyState = type { ptr, ptr, i64, i64, i64, i32, %struct.CoMutex, i64, i32, %struct.BlockReqList, %struct.anon.0, i8, ptr, ptr, ptr, %struct.RateLimit }
%struct.CoMutex = type { i32, ptr, %struct.anon, %struct.anon, i32, i32, ptr }
%struct.anon = type { ptr }
%struct.BlockReqList = type { ptr }
%struct.anon.0 = type { ptr }
%struct.RateLimit = type { %struct.QemuMutex, i64, i64, i64, i64, i64 }
%struct.QemuMutex = type { %union.pthread_mutex_t, i8 }
%union.pthread_mutex_t = type { %struct.__pthread_mutex_s }
%struct.__pthread_mutex_s = type { i32, i32, i32, i32, i32, i16, i16, %struct.__pthread_internal_list }
%struct.__pthread_internal_list = type { ptr, ptr }
%struct.BdrvChild = type { ptr, ptr, ptr, i32, ptr, i64, i64, i8, i8, %struct.anon.1, %struct.anon.2 }
%struct.anon.1 = type { ptr, ptr }
%struct.anon.2 = type { ptr, ptr }

@.str.1 = private unnamed_addr constant [27 x i8] c"../qemu/block/block-copy.c\00", align 1
@.str.9 = private unnamed_addr constant [41 x i8] c"QEMU_IS_ALIGNED(offset, s->cluster_size)\00", align 1
@__PRETTY_FUNCTION__.block_copy_is_cluster_allocated = private unnamed_addr constant [74 x i8] c"int block_copy_is_cluster_allocated(BlockCopyState *, int64_t, int64_t *)\00", align 1

; Function Attrs: nounwind sspstrong uwtable
define internal i32 @block_copy_is_cluster_allocated(ptr noundef %s, i64 noundef %offset, ptr noundef %pnum) #0 {
entry:
  %retval = alloca i32, align 4
  %s.addr = alloca ptr, align 8
  %offset.addr = alloca i64, align 8
  %pnum.addr = alloca ptr, align 8
  %bs = alloca ptr, align 8
  %count = alloca i64, align 8
  %total_count = alloca i64, align 8
  %bytes = alloca i64, align 8
  %ret = alloca i32, align 4
  store ptr %s, ptr %s.addr, align 8
  store i64 %offset, ptr %offset.addr, align 8
  store ptr %pnum, ptr %pnum.addr, align 8
  %0 = load ptr, ptr %s.addr, align 8
  %source = getelementptr inbounds %struct.BlockCopyState, ptr %0, i32 0, i32 0
  %1 = load ptr, ptr %source, align 8
  %bs1 = getelementptr inbounds %struct.BdrvChild, ptr %1, i32 0, i32 0
  %2 = load ptr, ptr %bs1, align 8
  store ptr %2, ptr %bs, align 8
  store i64 0, ptr %total_count, align 8
  %3 = load ptr, ptr %s.addr, align 8
  %len = getelementptr inbounds %struct.BlockCopyState, ptr %3, i32 0, i32 4
  %4 = load i64, ptr %len, align 8
  %5 = load i64, ptr %offset.addr, align 8
  %sub = sub i64 %4, %5
  store i64 %sub, ptr %bytes, align 8
  %6 = load i64, ptr %offset.addr, align 8
  %7 = load ptr, ptr %s.addr, align 8
  %cluster_size = getelementptr inbounds %struct.BlockCopyState, ptr %7, i32 0, i32 2
  %8 = load i64, ptr %cluster_size, align 8
  %rem = srem i64 %6, %8
  %cmp = icmp eq i64 %rem, 0
  br i1 %cmp, label %if.then, label %if.else

if.then:                                          ; preds = %entry
  br label %if.end

if.else:                                          ; preds = %entry
  call void @__assert_fail(ptr noundef @.str.9, ptr noundef @.str.1, i32 noundef 640, ptr noundef @__PRETTY_FUNCTION__.block_copy_is_cluster_allocated) #8
  unreachable

if.end:                                           ; preds = %if.then
  br label %while.body

while.body:                                       ; preds = %if.end17, %if.end
  %9 = load ptr, ptr %bs, align 8
  %10 = load i64, ptr %offset.addr, align 8
  %11 = load i64, ptr %bytes, align 8
  %call = call i32 @bdrv_co_is_allocated(ptr noundef %9, i64 noundef %10, i64 noundef %11, ptr noundef %count)
  store i32 %call, ptr %ret, align 4
  %12 = load i32, ptr %ret, align 4
  %cmp2 = icmp slt i32 %12, 0
  br i1 %cmp2, label %if.then3, label %if.end4

if.then3:                                         ; preds = %while.body
  %13 = load i32, ptr %ret, align 4
  store i32 %13, ptr %retval, align 4
  br label %return

if.end4:                                          ; preds = %while.body
  %14 = load i64, ptr %count, align 8
  %15 = load i64, ptr %total_count, align 8
  %add = add i64 %15, %14
  store i64 %add, ptr %total_count, align 8
  %16 = load i32, ptr %ret, align 4
  %tobool = icmp ne i32 %16, 0
  br i1 %tobool, label %if.then6, label %lor.lhs.false

lor.lhs.false:                                    ; preds = %if.end4
  %17 = load i64, ptr %count, align 8
  %cmp5 = icmp eq i64 %17, 0
  br i1 %cmp5, label %if.then6, label %if.end11

if.then6:                                         ; preds = %lor.lhs.false, %if.end4
  %18 = load i64, ptr %total_count, align 8
  %19 = load ptr, ptr %s.addr, align 8
  %cluster_size7 = getelementptr inbounds %struct.BlockCopyState, ptr %19, i32 0, i32 2
  %20 = load i64, ptr %cluster_size7, align 8
  %add8 = add i64 %18, %20
  %sub9 = sub i64 %add8, 1
  %21 = load ptr, ptr %s.addr, align 8
  %cluster_size10 = getelementptr inbounds %struct.BlockCopyState, ptr %21, i32 0, i32 2
  %22 = load i64, ptr %cluster_size10, align 8
  %div = sdiv i64 %sub9, %22
  %23 = load ptr, ptr %pnum.addr, align 8
  store i64 %div, ptr %23, align 8
  %24 = load i32, ptr %ret, align 4
  store i32 %24, ptr %retval, align 4
  br label %return

if.end11:                                         ; preds = %lor.lhs.false
  %25 = load i64, ptr %total_count, align 8
  %26 = load ptr, ptr %s.addr, align 8
  %cluster_size12 = getelementptr inbounds %struct.BlockCopyState, ptr %26, i32 0, i32 2
  %27 = load i64, ptr %cluster_size12, align 8
  %cmp13 = icmp sge i64 %25, %27
  br i1 %cmp13, label %if.then14, label %if.end17

if.then14:                                        ; preds = %if.end11
  %28 = load i64, ptr %total_count, align 8
  %29 = load ptr, ptr %s.addr, align 8
  %cluster_size15 = getelementptr inbounds %struct.BlockCopyState, ptr %29, i32 0, i32 2
  %30 = load i64, ptr %cluster_size15, align 8
  %div16 = sdiv i64 %28, %30
  %31 = load ptr, ptr %pnum.addr, align 8
  store i64 %div16, ptr %31, align 8
  store i32 0, ptr %retval, align 4
  br label %return

if.end17:                                         ; preds = %if.end11
  %32 = load i64, ptr %count, align 8
  %33 = load i64, ptr %offset.addr, align 8
  %add18 = add i64 %33, %32
  store i64 %add18, ptr %offset.addr, align 8
  %34 = load i64, ptr %count, align 8
  %35 = load i64, ptr %bytes, align 8
  %sub19 = sub i64 %35, %34
  store i64 %sub19, ptr %bytes, align 8
  br label %while.body

return:                                           ; preds = %if.then14, %if.then6, %if.then3
  %36 = load i32, ptr %retval, align 4
  ret i32 %36
}