; Function Attrs: nounwind sspstrong uwtable
define internal i32 @block_copy_is_cluster_allocated(ptr noundef readonly captures(none) %s, i64 noundef %offset, ptr noundef writeonly captures(none) %pnum) #0 {
entry:
  %count = alloca i64, align 8
  %0 = load ptr, ptr %s, align 8
  %1 = load ptr, ptr %0, align 8
  %cluster_size = getelementptr inbounds nuw i8, ptr %s, i64 16
  %2 = load i64, ptr %cluster_size, align 8
  %rem = srem i64 %offset, %2
  %cmp = icmp eq i64 %rem, 0
  br i1 %cmp, label %while.body.preheader, label %if.else

while.body.preheader:                             ; preds = %entry
  %len = getelementptr inbounds nuw i8, ptr %s, i64 32
  %3 = load i64, ptr %len, align 8
  %sub = sub i64 %3, %offset
  %call23 = call i32 @bdrv_co_is_allocated(ptr noundef %1, i64 noundef %offset, i64 noundef %sub, ptr noundef nonnull %count) #14
  %cmp224 = icmp slt i32 %call23, 0
  br i1 %cmp224, label %return, label %if.end4

if.else:                                          ; preds = %entry
  tail call void @__assert_fail(ptr noundef nonnull @.str.9, ptr noundef nonnull @.str.1, i32 noundef 640, ptr noundef nonnull @__PRETTY_FUNCTION__.block_copy_is_cluster_allocated) #15
  unreachable

if.end4:                                          ; preds = %while.body.preheader, %if.end17
  %call28 = phi i32 [ %call, %if.end17 ], [ %call23, %while.body.preheader ]
  %bytes.027 = phi i64 [ %sub19, %if.end17 ], [ %sub, %while.body.preheader ]
  %total_count.026 = phi i64 [ %add, %if.end17 ], [ 0, %while.body.preheader ]
  %offset.addr.025 = phi i64 [ %add18, %if.end17 ], [ %offset, %while.body.preheader ]
  %4 = load i64, ptr %count, align 8
  %add = add i64 %4, %total_count.026
  %tobool = icmp ne i32 %call28, 0
  %cmp5 = icmp eq i64 %4, 0
  %or.cond = select i1 %tobool, i1 true, i1 %cmp5
  %5 = load i64, ptr %cluster_size, align 8
  br i1 %or.cond, label %if.then6, label %if.end11

if.then6:                                         ; preds = %if.end4
  %add8 = add i64 %add, -1
  %sub9 = add i64 %add8, %5
  br label %return.sink.split

if.end11:                                         ; preds = %if.end4
  %cmp13.not = icmp slt i64 %add, %5
  br i1 %cmp13.not, label %if.end17, label %return.sink.split

if.end17:                                         ; preds = %if.end11
  %add18 = add i64 %4, %offset.addr.025
  %sub19 = sub i64 %bytes.027, %4
  %call = call i32 @bdrv_co_is_allocated(ptr noundef %1, i64 noundef %add18, i64 noundef %sub19, ptr noundef nonnull %count) #14
  %cmp2 = icmp slt i32 %call, 0
  br i1 %cmp2, label %return, label %if.end4

return.sink.split:                                ; preds = %if.end11, %if.then6
  %sub9.sink = phi i64 [ %sub9, %if.then6 ], [ %add, %if.end11 ]
  %call21.ph = phi i32 [ %call28, %if.then6 ], [ 0, %if.end11 ]
  %div = sdiv i64 %sub9.sink, %5
  store i64 %div, ptr %pnum, align 8
  br label %return

return:                                           ; preds = %if.end17, %return.sink.split, %while.body.preheader
  %call21 = phi i32 [ %call23, %while.body.preheader ], [ %call21.ph, %return.sink.split ], [ %call, %if.end17 ]
  ret i32 %call21
}